target datalayout = "e-m:e-p270:32:32-p271:32:32-p272:64:64-i64:64-i128:128-f80:128-n8:16:32:64-S128"
target triple = "x86_64-pc-linux-gnu"

%struct.prng_rand_t = type { [64 x i64], i64, i64 }
%class.ModelWriter = type <{ %"class.ncnn::Net", ptr, ptr, i8, [3 x i8], i32, i32, i32, i32, [4 x i8] }>
%"class.ncnn::Net" = type { ptr, %"class.ncnn::Option", ptr }
%"class.ncnn::Option" = type { i8, i32, ptr, ptr, i32, i8, i8, i8, i8, i8, i8, i8, i8, i8, i8, i8, i8, i8, i8, i8, i8, i8, i8, i8, i8, i32, i8, i8, i8, i8, i8, i8, i8, i8, i8, i8, i8, i8 }

@_ZL17g_prng_rand_state = internal global %struct.prng_rand_t zeroinitializer, align 8

; Function Attrs: inlinehint mustprogress nounwind uwtable
define internal noundef i64 @_ZL9prng_randP11prng_rand_t(ptr noundef %0) #1 {
  %2 = alloca ptr, align 8
  %3 = alloca i64, align 8
  %4 = alloca i64, align 8
  %5 = alloca i64, align 8
  store ptr %0, ptr %2, align 8, !tbaa !41
  call void @llvm.lifetime.start.p0(i64 8, ptr %3) #20
  call void @llvm.lifetime.start.p0(i64 8, ptr %4) #20
  call void @llvm.lifetime.start.p0(i64 8, ptr %5) #20
  store i64 0, ptr %5, align 8, !tbaa !39
  %6 = load ptr, ptr %2, align 8, !tbaa !41
  %7 = getelementptr inbounds nuw %struct.prng_rand_t, ptr %6, i32 0, i32 2
  %8 = load i64, ptr %7, align 8, !tbaa !43
  %9 = icmp ne i64 %8, 0
  br i1 %9, label %15, label %10

10:                                               ; preds = %1
  %11 = load i64, ptr %5, align 8, !tbaa !39
  %12 = add i64 %11, 496
  store i64 %12, ptr %5, align 8, !tbaa !39
  %13 = load ptr, ptr %2, align 8, !tbaa !41
  %14 = getelementptr inbounds nuw %struct.prng_rand_t, ptr %13, i32 0, i32 2
  store i64 54, ptr %14, align 8, !tbaa !43
  br label %20

15:                                               ; preds = %1
  store i64 1, ptr %5, align 8, !tbaa !39
  %16 = load ptr, ptr %2, align 8, !tbaa !41
  %17 = getelementptr inbounds nuw %struct.prng_rand_t, ptr %16, i32 0, i32 2
  %18 = load i64, ptr %17, align 8, !tbaa !43
  %19 = add i64 %18, -1
  store i64 %19, ptr %17, align 8, !tbaa !43
  br label %20

20:                                               ; preds = %15, %10
  store i64 0, ptr %4, align 8, !tbaa !39
  br label %21

21:                                               ; preds = %55, %20
  %22 = load i64, ptr %4, align 8, !tbaa !39
  %23 = load i64, ptr %5, align 8, !tbaa !39
  %24 = icmp ult i64 %22, %23
  br i1 %24, label %25, label %58

25:                                               ; preds = %21
  %26 = load ptr, ptr %2, align 8, !tbaa !41
  %27 = getelementptr inbounds nuw %struct.prng_rand_t, ptr %26, i32 0, i32 1
  %28 = load i64, ptr %27, align 8, !tbaa !45
  store i64 %28, ptr %3, align 8, !tbaa !39
  %29 = load ptr, ptr %2, align 8, !tbaa !41
  %30 = getelementptr inbounds nuw %struct.prng_rand_t, ptr %29, i32 0, i32 0
  %31 = load i64, ptr %3, align 8, !tbaa !39
  %32 = add i64 %31, 64
  %33 = sub i64 %32, 24
  %34 = and i64 %33, 63
  %35 = getelementptr inbounds nuw [64 x i64], ptr %30, i64 0, i64 %34
  %36 = load i64, ptr %35, align 8, !tbaa !39
  %37 = load ptr, ptr %2, align 8, !tbaa !41
  %38 = getelementptr inbounds nuw %struct.prng_rand_t, ptr %37, i32 0, i32 0
  %39 = load i64, ptr %3, align 8, !tbaa !39
  %40 = add i64 %39, 64
  %41 = sub i64 %40, 55
  %42 = and i64 %41, 63
  %43 = getelementptr inbounds nuw [64 x i64], ptr %38, i64 0, i64 %42
  %44 = load i64, ptr %43, align 8, !tbaa !39
  %45 = add i64 %36, %44
  %46 = load ptr, ptr %2, align 8, !tbaa !41
  %47 = getelementptr inbounds nuw %struct.prng_rand_t, ptr %46, i32 0, i32 0
  %48 = load i64, ptr %3, align 8, !tbaa !39
  %49 = and i64 %48, 63
  %50 = getelementptr inbounds nuw [64 x i64], ptr %47, i64 0, i64 %49
  store i64 %45, ptr %50, align 8, !tbaa !39
  %51 = load ptr, ptr %2, align 8, !tbaa !41
  %52 = getelementptr inbounds nuw %struct.prng_rand_t, ptr %51, i32 0, i32 1
  %53 = load i64, ptr %52, align 8, !tbaa !45
  %54 = add i64 %53, 1
  store i64 %54, ptr %52, align 8, !tbaa !45
  br label %55

55:                                               ; preds = %25
  %56 = load i64, ptr %4, align 8, !tbaa !39
  %57 = add i64 %56, 1
  store i64 %57, ptr %4, align 8, !tbaa !39
  br label %21, !llvm.loop !49

58:                                               ; preds = %21
  %59 = load ptr, ptr %2, align 8, !tbaa !41
  %60 = getelementptr inbounds nuw %struct.prng_rand_t, ptr %59, i32 0, i32 0
  %61 = load i64, ptr %3, align 8, !tbaa !39
  %62 = and i64 %61, 63
  %63 = getelementptr inbounds nuw [64 x i64], ptr %60, i64 0, i64 %62
  %64 = load i64, ptr %63, align 8, !tbaa !39
  call void @llvm.lifetime.end.p0(i64 8, ptr %5) #20
  call void @llvm.lifetime.end.p0(i64 8, ptr %4) #20
  call void @llvm.lifetime.end.p0(i64 8, ptr %3) #20
  ret i64 %64
}

; Function Attrs: inlinehint mustprogress uwtable
define internal void @_ZL10prng_srandmP11prng_rand_t(i64 noundef %0, ptr noundef %1) #5 {
  %3 = alloca i64, align 8
  %4 = alloca ptr, align 8
  %5 = alloca i64, align 8
  store i64 %0, ptr %3, align 8, !tbaa !39
  store ptr %1, ptr %4, align 8, !tbaa !41
  call void @llvm.lifetime.start.p0(i64 8, ptr %5) #20
  %6 = load ptr, ptr %4, align 8, !tbaa !41
  %7 = getelementptr inbounds nuw %struct.prng_rand_t, ptr %6, i32 0, i32 2
  store i64 55, ptr %7, align 8, !tbaa !43
  %8 = load ptr, ptr %4, align 8, !tbaa !41
  %9 = getelementptr inbounds nuw %struct.prng_rand_t, ptr %8, i32 0, i32 1
  store i64 0, ptr %9, align 8, !tbaa !45
  %10 = load i64, ptr %3, align 8, !tbaa !39
  %11 = load ptr, ptr %4, align 8, !tbaa !41
  %12 = getelementptr inbounds nuw %struct.prng_rand_t, ptr %11, i32 0, i32 0
  %13 = getelementptr inbounds [64 x i64], ptr %12, i64 0, i64 0
  store i64 %10, ptr %13, align 8, !tbaa !39
  store i64 1, ptr %5, align 8, !tbaa !39
  br label %14

14:                                               ; preds = %26, %2
  %15 = load i64, ptr %5, align 8, !tbaa !39
  %16 = icmp ult i64 %15, 64
  br i1 %16, label %17, label %29

17:                                               ; preds = %14
  %18 = load i64, ptr %5, align 8, !tbaa !39
  %19 = mul i64 %18, 2147483647
  %20 = load i64, ptr %3, align 8, !tbaa !39
  %21 = add i64 %19, %20
  %22 = load ptr, ptr %4, align 8, !tbaa !41
  %23 = getelementptr inbounds nuw %struct.prng_rand_t, ptr %22, i32 0, i32 0
  %24 = load i64, ptr %5, align 8, !tbaa !39
  %25 = getelementptr inbounds nuw [64 x i64], ptr %23, i64 0, i64 %24
  store i64 %21, ptr %25, align 8, !tbaa !39
  br label %26

26:                                               ; preds = %17
  %27 = load i64, ptr %5, align 8, !tbaa !39
  %28 = add i64 %27, 1
  store i64 %28, ptr %5, align 8, !tbaa !39
  br label %14, !llvm.loop !46

29:                                               ; preds = %14
  store i64 0, ptr %5, align 8, !tbaa !39
  br label %30

30:                                               ; preds = %36, %29
  %31 = load i64, ptr %5, align 8, !tbaa !39
  %32 = icmp ult i64 %31, 10000
  br i1 %32, label %33, label %39

33:                                               ; preds = %30
  %34 = load ptr, ptr %4, align 8, !tbaa !41
  %35 = call noundef i64 @_ZL9prng_randP11prng_rand_t(ptr noundef %34)
  br label %36

36:                                               ; preds = %33
  %37 = load i64, ptr %5, align 8, !tbaa !39
  %38 = add i64 %37, 1
  store i64 %38, ptr %5, align 8, !tbaa !39
  br label %30, !llvm.loop !48

39:                                               ; preds = %30
  call void @llvm.lifetime.end.p0(i64 8, ptr %5) #20
  ret void
}

; Function Attrs: mustprogress uwtable
define dso_local void @_ZN11ModelWriterC2Ev(ptr noundef nonnull align 8 dereferenceable(116) %0) unnamed_addr #3 align 2 personality ptr @__gxx_personality_v0 {
  %2 = alloca ptr, align 8
  %3 = alloca ptr, align 8
  %4 = alloca i32, align 4
  store ptr %0, ptr %2, align 8, !tbaa !5
  %5 = load ptr, ptr %2, align 8
  call void @_ZN4ncnn3NetC2Ev(ptr noundef nonnull align 8 dereferenceable(80) %5)
  store ptr getelementptr inbounds inrange(-16, 56) ({ [9 x ptr] }, ptr @_ZTV11ModelWriter, i32 0, i32 0, i32 2), ptr %5, align 8, !tbaa !29
  %6 = getelementptr inbounds nuw %class.ModelWriter, ptr %5, i32 0, i32 1
  %7 = invoke noundef nonnull align 8 dereferenceable(24) ptr @_ZN4ncnn3Net13mutable_blobsEv(ptr noundef nonnull align 8 dereferenceable(80) %5)
          to label %8 unwind label %19

8:                                                ; preds = %1
  store ptr %7, ptr %6, align 8, !tbaa !33
  %9 = getelementptr inbounds nuw %class.ModelWriter, ptr %5, i32 0, i32 2
  %10 = invoke noundef nonnull align 8 dereferenceable(24) ptr @_ZN4ncnn3Net14mutable_layersEv(ptr noundef nonnull align 8 dereferenceable(80) %5)
          to label %11 unwind label %19

11:                                               ; preds = %8
  store ptr %10, ptr %9, align 8, !tbaa !34
  %12 = getelementptr inbounds nuw %"class.ncnn::Net", ptr %5, i32 0, i32 1
  %13 = getelementptr inbounds nuw %"class.ncnn::Option", ptr %12, i32 0, i32 0
  store i8 0, ptr %13, align 8, !tbaa !35
  %14 = getelementptr inbounds nuw %class.ModelWriter, ptr %5, i32 0, i32 3
  store i8 0, ptr %14, align 8, !tbaa !16
  %15 = getelementptr inbounds nuw %class.ModelWriter, ptr %5, i32 0, i32 6
  store i32 0, ptr %15, align 8, !tbaa !36
  %16 = getelementptr inbounds nuw %class.ModelWriter, ptr %5, i32 0, i32 7
  store i32 -1, ptr %16, align 4, !tbaa !37
  %17 = getelementptr inbounds nuw %class.ModelWriter, ptr %5, i32 0, i32 8
  store i32 -1, ptr %17, align 8, !tbaa !38
  invoke void @_ZL10prng_srandmP11prng_rand_t(i64 noundef 7767517, ptr noundef @_ZL17g_prng_rand_state)
          to label %18 unwind label %19

18:                                               ; preds = %11
  ret void

19:                                               ; preds = %11, %8, %1
  %20 = landingpad { ptr, i32 }
          cleanup
  %21 = extractvalue { ptr, i32 } %20, 0
  store ptr %21, ptr %3, align 8
  %22 = extractvalue { ptr, i32 } %20, 1
  store i32 %22, ptr %4, align 4
  call void @_ZN4ncnn3NetD2Ev(ptr noundef nonnull align 8 dereferenceable(80) %5) #20
  br label %23

23:                                               ; preds = %19
  %24 = load ptr, ptr %3, align 8
  %25 = load i32, ptr %4, align 4
  %26 = insertvalue { ptr, i32 } poison, ptr %24, 0
  %27 = insertvalue { ptr, i32 } %26, i32 %25, 1
  resume { ptr, i32 } %27
}