; Function Attrs: mustprogress uwtable
define dso_local void @_ZN11ModelWriterC2Ev(ptr noundef nonnull align 8 dereferenceable(116) %0) unnamed_addr #3 align 2 personality ptr @__gxx_personality_v0 {
  tail call void @_ZN4ncnn3NetC2Ev(ptr noundef nonnull align 8 dereferenceable(80) %0)
  store ptr getelementptr inbounds nuw inrange(-16, 56) (i8, ptr @_ZTV11ModelWriter, i64 16), ptr %0, align 8, !tbaa !20
  %2 = invoke noundef nonnull align 8 dereferenceable(24) ptr @_ZN4ncnn3Net13mutable_blobsEv(ptr noundef nonnull align 8 dereferenceable(80) %0)
          to label %3 unwind label %48

3:                                                ; preds = %1
  %4 = getelementptr inbounds nuw i8, ptr %0, i64 80
  store ptr %2, ptr %4, align 8, !tbaa !22
  %5 = invoke noundef nonnull align 8 dereferenceable(24) ptr @_ZN4ncnn3Net14mutable_layersEv(ptr noundef nonnull align 8 dereferenceable(80) %0)
          to label %6 unwind label %48

6:                                                ; preds = %3
  %7 = getelementptr inbounds nuw i8, ptr %0, i64 88
  store ptr %5, ptr %7, align 8, !tbaa !23
  %8 = getelementptr inbounds nuw i8, ptr %0, i64 8
  store i8 0, ptr %8, align 8, !tbaa !24
  %9 = getelementptr inbounds nuw i8, ptr %0, i64 96
  store i8 0, ptr %9, align 8, !tbaa !10
  %10 = getelementptr inbounds nuw i8, ptr %0, i64 104
  store i32 0, ptr %10, align 8, !tbaa !25
  %11 = getelementptr inbounds nuw i8, ptr %0, i64 108
  store i32 -1, ptr %11, align 4, !tbaa !26
  %12 = getelementptr inbounds nuw i8, ptr %0, i64 112
  store i32 -1, ptr %12, align 8, !tbaa !27
  store i64 55, ptr getelementptr inbounds nuw (i8, ptr @_ZL17g_prng_rand_state, i64 520), align 8, !tbaa !28
  store i64 0, ptr getelementptr inbounds nuw (i8, ptr @_ZL17g_prng_rand_state, i64 512), align 8, !tbaa !31
  store i64 7767517, ptr @_ZL17g_prng_rand_state, align 8, !tbaa !32
  br label %13

.preheader.i:                                     ; preds = %13
  %.promoted.i = load i64, ptr getelementptr inbounds nuw (i8, ptr @_ZL17g_prng_rand_state, i64 520), align 8, !tbaa !28
  %.promoted3.i = load i64, ptr getelementptr inbounds nuw (i8, ptr @_ZL17g_prng_rand_state, i64 512), align 8, !tbaa !31
  %.promoted.fr.i = freeze i64 %.promoted.i
  br label %18

13:                                               ; preds = %13, %6
  %.01.i = phi i64 [ 1, %6 ], [ %17, %13 ]
  %14 = mul nuw nsw i64 %.01.i, 2147483647
  %15 = add nuw nsw i64 %14, 7767517
  %16 = getelementptr inbounds nuw [64 x i64], ptr @_ZL17g_prng_rand_state, i64 0, i64 %.01.i
  store i64 %15, ptr %16, align 8, !tbaa !32
  %17 = add nuw nsw i64 %.01.i, 1
  %exitcond.not.i = icmp eq i64 %17, 64
  br i1 %exitcond.not.i, label %.preheader.i, label %13, !llvm.loop !33

18:                                               ; preds = %_ZL9prng_randP11prng_rand_t.exit.i, %.preheader.i
  %.17.i = phi i64 [ 0, %.preheader.i ], [ %46, %_ZL9prng_randP11prng_rand_t.exit.i ]
  %storemerge.i26.i = phi i64 [ %.promoted.fr.i, %.preheader.i ], [ %storemerge.i.i, %_ZL9prng_randP11prng_rand_t.exit.i ]
  %.us-phi45.i = phi i64 [ %.promoted3.i, %.preheader.i ], [ %.us-phi.i, %_ZL9prng_randP11prng_rand_t.exit.i ]
  %.not.i.i = icmp eq i64 %storemerge.i26.i, 0
  %19 = add i64 %storemerge.i26.i, -1
  %storemerge.i.i = select i1 %.not.i.i, i64 54, i64 %19
  br i1 %.not.i.i, label %.split.i, label %.split.us.i

.split.us.i:                                      ; preds = %18
  %20 = add i64 %.us-phi45.i, 40
  %21 = and i64 %20, 63
  %22 = getelementptr inbounds nuw [64 x i64], ptr @_ZL17g_prng_rand_state, i64 0, i64 %21
  %23 = load i64, ptr %22, align 8, !tbaa !32
  %24 = add i64 %.us-phi45.i, 9
  %25 = and i64 %24, 63
  %26 = getelementptr inbounds nuw [64 x i64], ptr @_ZL17g_prng_rand_state, i64 0, i64 %25
  %27 = load i64, ptr %26, align 8, !tbaa !32
  %28 = add i64 %27, %23
  %29 = and i64 %.us-phi45.i, 63
  %30 = getelementptr inbounds nuw [64 x i64], ptr @_ZL17g_prng_rand_state, i64 0, i64 %29
  store i64 %28, ptr %30, align 8, !tbaa !32
  %31 = add i64 %.us-phi45.i, 1
  br label %_ZL9prng_randP11prng_rand_t.exit.i

.split.i:                                         ; preds = %18, %.split.i
  %.0161.i.i = phi i64 [ %45, %.split.i ], [ 0, %18 ]
  %32 = phi i64 [ %44, %.split.i ], [ %.us-phi45.i, %18 ]
  %33 = add i64 %32, 40
  %34 = and i64 %33, 63
  %35 = getelementptr inbounds nuw [64 x i64], ptr @_ZL17g_prng_rand_state, i64 0, i64 %34
  %36 = load i64, ptr %35, align 8, !tbaa !32
  %37 = add i64 %32, 9
  %38 = and i64 %37, 63
  %39 = getelementptr inbounds nuw [64 x i64], ptr @_ZL17g_prng_rand_state, i64 0, i64 %38
  %40 = load i64, ptr %39, align 8, !tbaa !32
  %41 = add i64 %40, %36
  %42 = and i64 %32, 63
  %43 = getelementptr inbounds nuw [64 x i64], ptr @_ZL17g_prng_rand_state, i64 0, i64 %42
  store i64 %41, ptr %43, align 8, !tbaa !32
  %44 = add i64 %32, 1
  %45 = add nuw nsw i64 %.0161.i.i, 1
  %exitcond8.not.i = icmp eq i64 %45, 496
  br i1 %exitcond8.not.i, label %_ZL9prng_randP11prng_rand_t.exit.i, label %.split.i, !llvm.loop !35

_ZL9prng_randP11prng_rand_t.exit.i:               ; preds = %.split.i, %.split.us.i
  %.us-phi.i = phi i64 [ %31, %.split.us.i ], [ %44, %.split.i ]
  %46 = add nuw nsw i64 %.17.i, 1
  %exitcond9.not.i = icmp eq i64 %46, 10000
  br i1 %exitcond9.not.i, label %47, label %18, !llvm.loop !36

47:                                               ; preds = %_ZL9prng_randP11prng_rand_t.exit.i
  store i64 %storemerge.i.i, ptr getelementptr inbounds nuw (i8, ptr @_ZL17g_prng_rand_state, i64 520), align 8, !tbaa !28
  store i64 %.us-phi.i, ptr getelementptr inbounds nuw (i8, ptr @_ZL17g_prng_rand_state, i64 512), align 8, !tbaa !31
  ret void

48:                                               ; preds = %3, %1
  %49 = landingpad { ptr, i32 }
          cleanup
  tail call void @_ZN4ncnn3NetD2Ev(ptr noundef nonnull align 8 dereferenceable(80) %0) #25
  resume { ptr, i32 } %49
}